target datalayout = "e-m:e-p270:32:32-p271:32:32-p272:64:64-i64:64-i128:128-f80:128-n8:16:32:64-S128"
target triple = "x86_64-pc-linux-gnu"

%struct.ma_job = type { %union.anon.0, i64, i32, %union.anon.2 }
%union.anon.0 = type { i64 }
%union.anon.2 = type { %union.anon.4 }
%union.anon.4 = type { %struct.anon.8 }
%struct.anon.8 = type { ptr, ptr, ptr, ptr, ptr, i64, i64, i64, i64, i32 }
%struct.anon.1 = type { i16, i16, i32 }

; Function Attrs: alwaysinline nounwind uwtable
define internal void @ma_zero_memory_default(ptr noundef %0, i64 noundef %1) #7 {
  %3 = alloca ptr, align 8
  %4 = alloca i64, align 8
  store ptr %0, ptr %3, align 8
  store i64 %1, ptr %4, align 8
  %5 = load ptr, ptr %3, align 8
  %6 = icmp eq ptr %5, null
  br i1 %6, label %7, label %8

7:                                                ; preds = %2
  br label %14

8:                                                ; preds = %2
  %9 = load i64, ptr %4, align 8
  %10 = icmp ugt i64 %9, 0
  br i1 %10, label %11, label %14

11:                                               ; preds = %8
  %12 = load ptr, ptr %3, align 8
  %13 = load i64, ptr %4, align 8
  call void @llvm.memset.p0.i64(ptr align 1 %12, i8 0, i64 %13, i1 false)
  br label %14

14:                                               ; preds = %7, %11, %8
  ret void
}

; Function Attrs: nounwind uwtable
define hidden void @ma_job_init(ptr dead_on_unwind noalias writable sret(%struct.ma_job) align 8 %0, i16 noundef zeroext %1) #0 {
  %3 = alloca i16, align 2
  store i16 %1, ptr %3, align 2
  call void @ma_zero_memory_default(ptr noundef %0, i64 noundef 104)
  %4 = load i16, ptr %3, align 2
  %5 = getelementptr inbounds nuw %struct.ma_job, ptr %0, i32 0, i32 0
  %6 = getelementptr inbounds nuw %struct.anon.1, ptr %5, i32 0, i32 0
  store i16 %4, ptr %6, align 8
  %7 = getelementptr inbounds nuw %struct.ma_job, ptr %0, i32 0, i32 0
  %8 = getelementptr inbounds nuw %struct.anon.1, ptr %7, i32 0, i32 1
  store i16 -1, ptr %8, align 2
  %9 = getelementptr inbounds nuw %struct.ma_job, ptr %0, i32 0, i32 1
  store i64 -1, ptr %9, align 8
  ret void
}