; Function Attrs: mustprogress nofree norecurse nosync nounwind willreturn memory(argmem: write) uwtable
define hidden void @ma_job_init(ptr dead_on_unwind noalias writable writeonly sret(%struct.ma_job) align 8 captures(none) %0, i16 noundef zeroext %1) local_unnamed_addr #0 {
  %.not = icmp eq ptr %0, null
  br i1 %.not, label %ma_zero_memory_default.exit, label %3

3:                                                ; preds = %2
  tail call void @llvm.memset.p0.i64(ptr noundef nonnull align 8 dereferenceable(104) %0, i8 0, i64 104, i1 false)
  br label %ma_zero_memory_default.exit

ma_zero_memory_default.exit:                      ; preds = %2, %3
  store i16 %1, ptr %0, align 8
  %4 = getelementptr inbounds nuw i8, ptr %0, i64 2
  store i16 -1, ptr %4, align 2
  %5 = getelementptr inbounds nuw i8, ptr %0, i64 8
  store i64 -1, ptr %5, align 8
  ret void
}